target datalayout = "e-m:e-p270:32:32-p271:32:32-p272:64:64-i64:64-i128:128-f80:128-n8:16:32:64-S128"
target triple = "x86_64-pc-linux-gnu"

%struct.SEIRawMessage = type { i32, i32, ptr, ptr, ptr, i64 }
%struct.SEIMessageTypeDescriptor = type { i32, i8, i8, i64, ptr, ptr }
%union.AVRefStructOpaque = type { ptr }

@.str = private unnamed_addr constant [30 x i8] c"Assertion %s failed at %s:%d\0A\00", align 1
@.str.1 = private unnamed_addr constant [69 x i8] c"message->payload == ((void*)0) && message->payload_ref == ((void*)0)\00", align 1
@.str.2 = private unnamed_addr constant [21 x i8] c"libavcodec/cbs_sei.c\00", align 1

; Function Attrs: inlinehint nounwind uwtable
define internal ptr @av_refstruct_alloc_ext(i64 noundef %0, i32 noundef %1, ptr noundef %2, ptr noundef %3) #4 {
  %5 = alloca i64, align 8
  %6 = alloca i32, align 4
  %7 = alloca ptr, align 8
  %8 = alloca ptr, align 8
  %9 = alloca %union.AVRefStructOpaque, align 8
  store i64 %0, ptr %5, align 8, !tbaa !26
  store i32 %1, ptr %6, align 4, !tbaa !27
  store ptr %2, ptr %7, align 8, !tbaa !20
  store ptr %3, ptr %8, align 8, !tbaa !20
  %10 = load i64, ptr %5, align 8, !tbaa !26
  %11 = load i32, ptr %6, align 4, !tbaa !27
  %12 = load ptr, ptr %7, align 8, !tbaa !20
  store ptr %12, ptr %9, align 8, !tbaa !28
  %13 = load ptr, ptr %8, align 8, !tbaa !20
  %14 = getelementptr inbounds nuw %union.AVRefStructOpaque, ptr %9, i32 0, i32 0
  %15 = load ptr, ptr %14, align 8
  %16 = call ptr @av_refstruct_alloc_ext_c(i64 noundef %10, i32 noundef %11, ptr %15, ptr noundef %13)
  ret ptr %16
}

; Function Attrs: nounwind uwtable
define i32 @ff_cbs_sei_alloc_message_payload(ptr noundef %0, ptr noundef %1) #0 {
  %3 = alloca i32, align 4
  %4 = alloca ptr, align 8
  %5 = alloca ptr, align 8
  %6 = alloca ptr, align 8
  %7 = alloca i32, align 4
  store ptr %0, ptr %4, align 8, !tbaa !4
  store ptr %1, ptr %5, align 8, !tbaa !9
  call void @llvm.lifetime.start.p0(i64 8, ptr %6) #7
  br label %8

8:                                                ; preds = %2
  %9 = load ptr, ptr %4, align 8, !tbaa !4
  %10 = getelementptr inbounds nuw %struct.SEIRawMessage, ptr %9, i32 0, i32 2
  %11 = load ptr, ptr %10, align 8, !tbaa !11
  %12 = icmp eq ptr %11, null
  br i1 %12, label %13, label %18

13:                                               ; preds = %8
  %14 = load ptr, ptr %4, align 8, !tbaa !4
  %15 = getelementptr inbounds nuw %struct.SEIRawMessage, ptr %14, i32 0, i32 3
  %16 = load ptr, ptr %15, align 8, !tbaa !16
  %17 = icmp eq ptr %16, null
  br i1 %17, label %19, label %18

18:                                               ; preds = %13, %8
  call void (ptr, i32, ptr, ...) @av_log(ptr noundef null, i32 noundef 0, ptr noundef @.str, ptr noundef @.str.1, ptr noundef @.str.2, i32 noundef 46)
  call void @abort() #8
  unreachable

19:                                               ; preds = %13
  br label %20

20:                                               ; preds = %19
  br label %21

21:                                               ; preds = %20
  %22 = load ptr, ptr %5, align 8, !tbaa !9
  %23 = getelementptr inbounds nuw %struct.SEIMessageTypeDescriptor, ptr %22, i32 0, i32 0
  %24 = load i32, ptr %23, align 8, !tbaa !17
  %25 = load ptr, ptr %4, align 8, !tbaa !4
  %26 = getelementptr inbounds nuw %struct.SEIRawMessage, ptr %25, i32 0, i32 0
  store i32 %24, ptr %26, align 8, !tbaa !19
  %27 = load ptr, ptr %5, align 8, !tbaa !9
  %28 = getelementptr inbounds nuw %struct.SEIMessageTypeDescriptor, ptr %27, i32 0, i32 0
  %29 = load i32, ptr %28, align 8, !tbaa !17
  %30 = icmp eq i32 %29, 4
  br i1 %30, label %31, label %32

31:                                               ; preds = %21
  store ptr @cbs_free_user_data_registered, ptr %6, align 8, !tbaa !20
  br label %40

32:                                               ; preds = %21
  %33 = load ptr, ptr %5, align 8, !tbaa !9
  %34 = getelementptr inbounds nuw %struct.SEIMessageTypeDescriptor, ptr %33, i32 0, i32 0
  %35 = load i32, ptr %34, align 8, !tbaa !17
  %36 = icmp eq i32 %35, 5
  br i1 %36, label %37, label %38

37:                                               ; preds = %32
  store ptr @cbs_free_user_data_unregistered, ptr %6, align 8, !tbaa !20
  br label %39

38:                                               ; preds = %32
  store ptr null, ptr %6, align 8, !tbaa !20
  br label %39

39:                                               ; preds = %38, %37
  br label %40

40:                                               ; preds = %39, %31
  %41 = load ptr, ptr %5, align 8, !tbaa !9
  %42 = getelementptr inbounds nuw %struct.SEIMessageTypeDescriptor, ptr %41, i32 0, i32 3
  %43 = load i64, ptr %42, align 8, !tbaa !21
  %44 = load ptr, ptr %6, align 8, !tbaa !20
  %45 = call ptr @av_refstruct_alloc_ext(i64 noundef %43, i32 noundef 0, ptr noundef null, ptr noundef %44)
  %46 = load ptr, ptr %4, align 8, !tbaa !4
  %47 = getelementptr inbounds nuw %struct.SEIRawMessage, ptr %46, i32 0, i32 3
  store ptr %45, ptr %47, align 8, !tbaa !16
  %48 = load ptr, ptr %4, align 8, !tbaa !4
  %49 = getelementptr inbounds nuw %struct.SEIRawMessage, ptr %48, i32 0, i32 3
  %50 = load ptr, ptr %49, align 8, !tbaa !16
  %51 = icmp ne ptr %50, null
  br i1 %51, label %53, label %52

52:                                               ; preds = %40
  store i32 -12, ptr %3, align 4
  store i32 1, ptr %7, align 4
  br label %59

53:                                               ; preds = %40
  %54 = load ptr, ptr %4, align 8, !tbaa !4
  %55 = getelementptr inbounds nuw %struct.SEIRawMessage, ptr %54, i32 0, i32 3
  %56 = load ptr, ptr %55, align 8, !tbaa !16
  %57 = load ptr, ptr %4, align 8, !tbaa !4
  %58 = getelementptr inbounds nuw %struct.SEIRawMessage, ptr %57, i32 0, i32 2
  store ptr %56, ptr %58, align 8, !tbaa !11
  store i32 0, ptr %3, align 4
  store i32 1, ptr %7, align 4
  br label %59

59:                                               ; preds = %53, %52
  call void @llvm.lifetime.end.p0(i64 8, ptr %6) #7
  %60 = load i32, ptr %3, align 4
  ret i32 %60
}