; Function Attrs: nounwind uwtable
define range(i32 -12, 1) i32 @ff_cbs_sei_alloc_message_payload(ptr noundef captures(none) %0, ptr noundef readonly captures(none) %1) local_unnamed_addr #0 {
  %3 = getelementptr inbounds nuw i8, ptr %0, i64 8
  %4 = load ptr, ptr %3, align 8, !tbaa !4
  %5 = icmp eq ptr %4, null
  br i1 %5, label %6, label %10

6:                                                ; preds = %2
  %7 = getelementptr inbounds nuw i8, ptr %0, i64 16
  %8 = load ptr, ptr %7, align 8, !tbaa !12
  %9 = icmp eq ptr %8, null
  br i1 %9, label %11, label %10

10:                                               ; preds = %6, %2
  tail call void (ptr, i32, ptr, ...) @av_log(ptr noundef null, i32 noundef 0, ptr noundef nonnull @.str, ptr noundef nonnull @.str.1, ptr noundef nonnull @.str.2, i32 noundef 46) #6
  tail call void @abort() #7
  unreachable

11:                                               ; preds = %6
  %12 = load i32, ptr %1, align 8, !tbaa !13
  store i32 %12, ptr %0, align 8, !tbaa !15
  %switch.selectcmp = icmp eq i32 %12, 5
  %switch.select = select i1 %switch.selectcmp, ptr @cbs_free_user_data_unregistered, ptr null
  %switch.selectcmp15 = icmp eq i32 %12, 4
  %switch.select16 = select i1 %switch.selectcmp15, ptr @cbs_free_user_data_registered, ptr %switch.select
  %13 = getelementptr inbounds nuw i8, ptr %1, i64 8
  %14 = load i64, ptr %13, align 8, !tbaa !16
  %15 = tail call ptr @av_refstruct_alloc_ext_c(i64 noundef %14, i32 noundef 0, ptr null, ptr noundef %switch.select16) #6
  store ptr %15, ptr %7, align 8, !tbaa !12
  %.not = icmp eq ptr %15, null
  br i1 %.not, label %17, label %16

16:                                               ; preds = %11
  store ptr %15, ptr %3, align 8, !tbaa !4
  br label %17

17:                                               ; preds = %11, %16
  %.012 = phi i32 [ 0, %16 ], [ -12, %11 ]
  ret i32 %.012
}